target datalayout = "e-m:e-p270:32:32-p271:32:32-p272:64:64-i64:64-i128:128-f80:128-n8:16:32:64-S128"
target triple = "x86_64-pc-linux-gnu"

%struct.darktable_t = type { %struct.dt_codepath_t, i32, i32, ptr, ptr, ptr, ptr, ptr, ptr, ptr, ptr, ptr, ptr, ptr, ptr, ptr, ptr, ptr, ptr, ptr, ptr, ptr, ptr, ptr, ptr, ptr, ptr, ptr, ptr, ptr, [64 x %struct.dt_pthread_mutex_t], %struct.dt_pthread_mutex_t, %struct.dt_pthread_mutex_t, %struct.dt_pthread_mutex_t, %struct.dt_pthread_mutex_t, %struct.dt_pthread_mutex_t, ptr, ptr, ptr, ptr, ptr, ptr, ptr, ptr, ptr, ptr, ptr, ptr, ptr, %struct.dt_lua_state_t, ptr, double, ptr, i32, [47 x i32], i32, i32, ptr, ptr, %struct.dt_sys_resources_t, %struct.dt_backthumb_t, %struct.dt_gimp_t }
%struct.dt_codepath_t = type { i8, [3 x i8] }
%struct.dt_pthread_mutex_t = type { %union.pthread_mutex_t }
%union.pthread_mutex_t = type { %struct.__pthread_mutex_s }
%struct.__pthread_mutex_s = type { i32, i32, i32, i32, i32, i16, i16, %struct.__pthread_internal_list }
%struct.__pthread_internal_list = type { ptr, ptr }
%struct.dt_lua_state_t = type { i32 }
%struct.dt_sys_resources_t = type { i64, i64, ptr, ptr, i32 }
%struct.dt_backthumb_t = type { double, double, i32, i32, i32, i32 }
%struct.dt_gimp_t = type { i32, ptr, ptr, i32, i32 }
%struct.dt_imageio_png_t = type { i32, i32, i32, i32, i32, i32, i32, ptr, ptr, ptr }
%struct.dt_colorspaces_cicp_t = type { i32, i32, i32 }
%struct.png_unknown_chunk_t = type { [5 x i8], ptr, i64, i8 }

@.str.2 = private unnamed_addr constant [5 x i8] c"cICP\00", align 1
@darktable = external global %struct.darktable_t, align 8
@.str.6 = private unnamed_addr constant [81 x i8] c"[png_open] encountered YUV and/or narrow-range image '%s', assuming unknown CICP\00", align 1

; Function Attrs: nounwind uwtable
define i32 @dt_imageio_png_read_profile(ptr noundef %0, ptr noundef %1, ptr noundef %2) #0 {
  %4 = alloca i32, align 4
  %5 = alloca ptr, align 8
  %6 = alloca ptr, align 8
  %7 = alloca ptr, align 8
  %8 = alloca %struct.dt_imageio_png_t, align 8
  %9 = alloca ptr, align 8
  %10 = alloca i32, align 4
  %11 = alloca ptr, align 8
  %12 = alloca i32, align 4
  %13 = alloca ptr, align 8
  %14 = alloca i32, align 4
  %15 = alloca i64, align 8
  store ptr %0, ptr %5, align 8, !tbaa !6
  store ptr %1, ptr %6, align 8, !tbaa !28
  store ptr %2, ptr %7, align 8, !tbaa !94
  %16 = load ptr, ptr %6, align 8, !tbaa !28
  store ptr null, ptr %16, align 8, !tbaa !6
  %17 = load ptr, ptr %7, align 8, !tbaa !94
  %18 = getelementptr inbounds nuw %struct.dt_colorspaces_cicp_t, ptr %17, i32 0, i32 0
  store i32 2, ptr %18, align 4, !tbaa !96
  %19 = load ptr, ptr %7, align 8, !tbaa !94
  %20 = getelementptr inbounds nuw %struct.dt_colorspaces_cicp_t, ptr %19, i32 0, i32 1
  store i32 2, ptr %20, align 4, !tbaa !98
  %21 = load ptr, ptr %7, align 8, !tbaa !94
  %22 = getelementptr inbounds nuw %struct.dt_colorspaces_cicp_t, ptr %21, i32 0, i32 2
  store i32 2, ptr %22, align 4, !tbaa !99
  call void @llvm.lifetime.start.p0(i64 56, ptr %8) #10
  call void @llvm.lifetime.start.p0(i64 8, ptr %9) #10
  call void @llvm.lifetime.start.p0(i64 4, ptr %10) #10
  store i32 0, ptr %10, align 4, !tbaa !30
  call void @llvm.lifetime.start.p0(i64 8, ptr %11) #10
  %23 = load ptr, ptr %5, align 8, !tbaa !6
  %24 = icmp ne ptr %23, null
  br i1 %24, label %25, label %30

25:                                               ; preds = %3
  %26 = load ptr, ptr %5, align 8, !tbaa !6
  %27 = load i8, ptr %26, align 1, !tbaa !84
  %28 = sext i8 %27 to i32
  %29 = icmp ne i32 %28, 0
  br i1 %29, label %31, label %30

30:                                               ; preds = %25, %3
  store i32 0, ptr %4, align 4
  store i32 1, ptr %12, align 4
  br label %163

31:                                               ; preds = %25
  %32 = load ptr, ptr %5, align 8, !tbaa !6
  %33 = call i32 @dt_imageio_png_read_header(ptr noundef %32, ptr noundef %8)
  %34 = icmp ne i32 %33, 0
  br i1 %34, label %36, label %35

35:                                               ; preds = %31
  store i32 0, ptr %4, align 4
  store i32 1, ptr %12, align 4
  br label %163

36:                                               ; preds = %31
  call void @llvm.lifetime.start.p0(i64 8, ptr %13) #10
  store ptr null, ptr %13, align 8, !tbaa !100
  call void @llvm.lifetime.start.p0(i64 4, ptr %14) #10
  %37 = getelementptr inbounds nuw %struct.dt_imageio_png_t, ptr %8, i32 0, i32 8
  %38 = load ptr, ptr %37, align 8, !tbaa !21
  %39 = getelementptr inbounds nuw %struct.dt_imageio_png_t, ptr %8, i32 0, i32 9
  %40 = load ptr, ptr %39, align 8, !tbaa !22
  %41 = call i32 @png_get_unknown_chunks(ptr noundef %38, ptr noundef %40, ptr noundef %13)
  store i32 %41, ptr %14, align 4, !tbaa !30
  call void @llvm.lifetime.start.p0(i64 8, ptr %15) #10
  store i64 0, ptr %15, align 8, !tbaa !19
  br label %42

42:                                               ; preds = %123, %36
  %43 = load i64, ptr %15, align 8, !tbaa !19
  %44 = load i32, ptr %14, align 4, !tbaa !30
  %45 = sext i32 %44 to i64
  %46 = icmp ult i64 %43, %45
  br i1 %46, label %48, label %47

47:                                               ; preds = %42
  store i32 2, ptr %12, align 4
  br label %126

48:                                               ; preds = %42
  %49 = load ptr, ptr %13, align 8, !tbaa !100
  %50 = load i64, ptr %15, align 8, !tbaa !19
  %51 = getelementptr inbounds nuw %struct.png_unknown_chunk_t, ptr %49, i64 %50
  %52 = getelementptr inbounds nuw %struct.png_unknown_chunk_t, ptr %51, i32 0, i32 0
  %53 = getelementptr inbounds [5 x i8], ptr %52, i64 0, i64 0
  %54 = call i32 @strcmp(ptr noundef %53, ptr noundef @.str.2) #13
  %55 = icmp ne i32 %54, 0
  br i1 %55, label %122, label %56

56:                                               ; preds = %48
  %57 = load ptr, ptr %13, align 8, !tbaa !100
  %58 = load i64, ptr %15, align 8, !tbaa !19
  %59 = getelementptr inbounds nuw %struct.png_unknown_chunk_t, ptr %57, i64 %58
  %60 = getelementptr inbounds nuw %struct.png_unknown_chunk_t, ptr %59, i32 0, i32 1
  %61 = load ptr, ptr %60, align 8, !tbaa !102
  %62 = getelementptr inbounds i8, ptr %61, i64 2
  %63 = load i8, ptr %62, align 1, !tbaa !84
  %64 = icmp ne i8 %63, 0
  br i1 %64, label %106, label %65

65:                                               ; preds = %56
  %66 = load ptr, ptr %13, align 8, !tbaa !100
  %67 = load i64, ptr %15, align 8, !tbaa !19
  %68 = getelementptr inbounds nuw %struct.png_unknown_chunk_t, ptr %66, i64 %67
  %69 = getelementptr inbounds nuw %struct.png_unknown_chunk_t, ptr %68, i32 0, i32 1
  %70 = load ptr, ptr %69, align 8, !tbaa !102
  %71 = getelementptr inbounds i8, ptr %70, i64 3
  %72 = load i8, ptr %71, align 1, !tbaa !84
  %73 = zext i8 %72 to i32
  %74 = icmp ne i32 %73, 0
  br i1 %74, label %75, label %106

75:                                               ; preds = %65
  %76 = load ptr, ptr %13, align 8, !tbaa !100
  %77 = load i64, ptr %15, align 8, !tbaa !19
  %78 = getelementptr inbounds nuw %struct.png_unknown_chunk_t, ptr %76, i64 %77
  %79 = getelementptr inbounds nuw %struct.png_unknown_chunk_t, ptr %78, i32 0, i32 1
  %80 = load ptr, ptr %79, align 8, !tbaa !102
  %81 = getelementptr inbounds i8, ptr %80, i64 0
  %82 = load i8, ptr %81, align 1, !tbaa !84
  %83 = zext i8 %82 to i32
  %84 = load ptr, ptr %7, align 8, !tbaa !94
  %85 = getelementptr inbounds nuw %struct.dt_colorspaces_cicp_t, ptr %84, i32 0, i32 0
  store i32 %83, ptr %85, align 4, !tbaa !96
  %86 = load ptr, ptr %13, align 8, !tbaa !100
  %87 = load i64, ptr %15, align 8, !tbaa !19
  %88 = getelementptr inbounds nuw %struct.png_unknown_chunk_t, ptr %86, i64 %87
  %89 = getelementptr inbounds nuw %struct.png_unknown_chunk_t, ptr %88, i32 0, i32 1
  %90 = load ptr, ptr %89, align 8, !tbaa !102
  %91 = getelementptr inbounds i8, ptr %90, i64 1
  %92 = load i8, ptr %91, align 1, !tbaa !84
  %93 = zext i8 %92 to i32
  %94 = load ptr, ptr %7, align 8, !tbaa !94
  %95 = getelementptr inbounds nuw %struct.dt_colorspaces_cicp_t, ptr %94, i32 0, i32 1
  store i32 %93, ptr %95, align 4, !tbaa !98
  %96 = load ptr, ptr %13, align 8, !tbaa !100
  %97 = load i64, ptr %15, align 8, !tbaa !19
  %98 = getelementptr inbounds nuw %struct.png_unknown_chunk_t, ptr %96, i64 %97
  %99 = getelementptr inbounds nuw %struct.png_unknown_chunk_t, ptr %98, i32 0, i32 1
  %100 = load ptr, ptr %99, align 8, !tbaa !102
  %101 = getelementptr inbounds i8, ptr %100, i64 2
  %102 = load i8, ptr %101, align 1, !tbaa !84
  %103 = zext i8 %102 to i32
  %104 = load ptr, ptr %7, align 8, !tbaa !94
  %105 = getelementptr inbounds nuw %struct.dt_colorspaces_cicp_t, ptr %104, i32 0, i32 2
  store i32 %103, ptr %105, align 4, !tbaa !99
  br label %121

106:                                              ; preds = %65, %56
  br label %107

107:                                              ; preds = %106
  %108 = load i32, ptr getelementptr inbounds nuw (%struct.darktable_t, ptr @darktable, i32 0, i32 2), align 8, !tbaa !48
  %109 = and i32 262144, %108
  %110 = icmp ne i32 %109, 0
  br i1 %110, label %111, label %118

111:                                              ; preds = %107
  %112 = load i32, ptr getelementptr inbounds nuw (%struct.darktable_t, ptr @darktable, i32 0, i32 2), align 8, !tbaa !48
  %113 = xor i32 %112, -1
  %114 = and i32 0, %113
  %115 = icmp ne i32 %114, 0
  br i1 %115, label %118, label %116

116:                                              ; preds = %111
  %117 = load ptr, ptr %5, align 8, !tbaa !6
  call void (ptr, ...) @dt_print_ext(ptr noundef @.str.6, ptr noundef %117)
  br label %118

118:                                              ; preds = %116, %111, %107
  br label %119

119:                                              ; preds = %118
  br label %120

120:                                              ; preds = %119
  br label %121

121:                                              ; preds = %120, %75
  store i32 2, ptr %12, align 4
  br label %126

122:                                              ; preds = %48
  br label %123

123:                                              ; preds = %122
  %124 = load i64, ptr %15, align 8, !tbaa !19
  %125 = add i64 %124, 1
  store i64 %125, ptr %15, align 8, !tbaa !19
  br label %42

126:                                              ; preds = %121, %47
  call void @llvm.lifetime.end.p0(i64 8, ptr %15) #10
  br label %127

127:                                              ; preds = %126
  %128 = getelementptr inbounds nuw %struct.dt_imageio_png_t, ptr %8, i32 0, i32 8
  %129 = load ptr, ptr %128, align 8, !tbaa !21
  %130 = getelementptr inbounds nuw %struct.dt_imageio_png_t, ptr %8, i32 0, i32 9
  %131 = load ptr, ptr %130, align 8, !tbaa !22
  %132 = call i32 @png_get_valid(ptr noundef %129, ptr noundef %131, i32 noundef 4096)
  %133 = icmp ne i32 %132, 0
  br i1 %133, label %134, label %156

134:                                              ; preds = %127
  %135 = getelementptr inbounds nuw %struct.dt_imageio_png_t, ptr %8, i32 0, i32 8
  %136 = load ptr, ptr %135, align 8, !tbaa !21
  %137 = getelementptr inbounds nuw %struct.dt_imageio_png_t, ptr %8, i32 0, i32 9
  %138 = load ptr, ptr %137, align 8, !tbaa !22
  %139 = call i32 @png_get_iCCP(ptr noundef %136, ptr noundef %138, ptr noundef %9, ptr noundef null, ptr noundef %11, ptr noundef %10)
  %140 = icmp ne i32 %139, 0
  br i1 %140, label %141, label %156

141:                                              ; preds = %134
  %142 = load i32, ptr %10, align 4, !tbaa !30
  %143 = zext i32 %142 to i64
  %144 = call noalias ptr @g_try_malloc(i64 noundef %143) #14
  %145 = load ptr, ptr %6, align 8, !tbaa !28
  store ptr %144, ptr %145, align 8, !tbaa !6
  %146 = load ptr, ptr %6, align 8, !tbaa !28
  %147 = load ptr, ptr %146, align 8, !tbaa !6
  %148 = icmp ne ptr %147, null
  br i1 %148, label %149, label %155

149:                                              ; preds = %141
  %150 = load ptr, ptr %6, align 8, !tbaa !28
  %151 = load ptr, ptr %150, align 8, !tbaa !6
  %152 = load ptr, ptr %11, align 8, !tbaa !6
  %153 = load i32, ptr %10, align 4, !tbaa !30
  %154 = zext i32 %153 to i64
  call void @llvm.memcpy.p0.p0.i64(ptr align 1 %151, ptr align 1 %152, i64 %154, i1 false)
  br label %155

155:                                              ; preds = %149, %141
  br label %156

156:                                              ; preds = %155, %134, %127
  %157 = getelementptr inbounds nuw %struct.dt_imageio_png_t, ptr %8, i32 0, i32 8
  %158 = getelementptr inbounds nuw %struct.dt_imageio_png_t, ptr %8, i32 0, i32 9
  call void @png_destroy_read_struct(ptr noundef %157, ptr noundef %158, ptr noundef null)
  %159 = getelementptr inbounds nuw %struct.dt_imageio_png_t, ptr %8, i32 0, i32 7
  %160 = load ptr, ptr %159, align 8, !tbaa !13
  %161 = call i32 @fclose(ptr noundef %160)
  %162 = load i32, ptr %10, align 4, !tbaa !30
  store i32 %162, ptr %4, align 4
  store i32 1, ptr %12, align 4
  call void @llvm.lifetime.end.p0(i64 4, ptr %14) #10
  call void @llvm.lifetime.end.p0(i64 8, ptr %13) #10
  br label %163

163:                                              ; preds = %156, %35, %30
  call void @llvm.lifetime.end.p0(i64 8, ptr %11) #10
  call void @llvm.lifetime.end.p0(i64 4, ptr %10) #10
  call void @llvm.lifetime.end.p0(i64 8, ptr %9) #10
  call void @llvm.lifetime.end.p0(i64 56, ptr %8) #10
  %164 = load i32, ptr %4, align 4
  ret i32 %164
}