; Function Attrs: nounwind uwtable
define i32 @dt_imageio_png_read_profile(ptr noundef %0, ptr noundef writeonly captures(none) initializes((0, 8)) %1, ptr noundef writeonly captures(none) initializes((0, 12)) %2) local_unnamed_addr #0 {
  %4 = alloca %struct.dt_imageio_png_t, align 8
  %5 = alloca ptr, align 8
  %6 = alloca i32, align 4
  %7 = alloca ptr, align 8
  %8 = alloca ptr, align 8
  store ptr null, ptr %1, align 8, !tbaa !21
  store i32 2, ptr %2, align 4, !tbaa !47
  %9 = getelementptr inbounds nuw i8, ptr %2, i64 4
  store i32 2, ptr %9, align 4, !tbaa !49
  %10 = getelementptr inbounds nuw i8, ptr %2, i64 8
  store i32 2, ptr %10, align 4, !tbaa !50
  call void @llvm.lifetime.start.p0(i64 56, ptr nonnull %4) #11
  call void @llvm.lifetime.start.p0(i64 8, ptr nonnull %5) #11
  call void @llvm.lifetime.start.p0(i64 4, ptr nonnull %6) #11
  store i32 0, ptr %6, align 4, !tbaa !51
  call void @llvm.lifetime.start.p0(i64 8, ptr nonnull %7) #11
  %.not = icmp eq ptr %0, null
  br i1 %.not, label %68, label %11

11:                                               ; preds = %3
  %12 = load i8, ptr %0, align 1, !tbaa !42
  %.not26 = icmp eq i8 %12, 0
  br i1 %.not26, label %68, label %13

13:                                               ; preds = %11
  %14 = call i32 @dt_imageio_png_read_header(ptr noundef nonnull %0, ptr noundef nonnull %4)
  %.not27 = icmp eq i32 %14, 0
  br i1 %.not27, label %68, label %15

15:                                               ; preds = %13
  call void @llvm.lifetime.start.p0(i64 8, ptr nonnull %8) #11
  store ptr null, ptr %8, align 8, !tbaa !52
  %16 = getelementptr inbounds nuw i8, ptr %4, i64 40
  %17 = load ptr, ptr %16, align 8, !tbaa !15
  %18 = getelementptr inbounds nuw i8, ptr %4, i64 48
  %19 = load ptr, ptr %18, align 8, !tbaa !16
  %20 = call i32 @png_get_unknown_chunks(ptr noundef %17, ptr noundef %19, ptr noundef nonnull %8) #11
  %21 = sext i32 %20 to i64
  %.not38 = icmp eq i32 %20, 0
  br i1 %.not38, label %.loopexit, label %.lr.ph

.lr.ph:                                           ; preds = %15
  %22 = load ptr, ptr %8, align 8, !tbaa !52
  br label %23

23:                                               ; preds = %.lr.ph, %46
  %.037 = phi i64 [ 0, %.lr.ph ], [ %47, %46 ]
  %24 = getelementptr inbounds nuw %struct.png_unknown_chunk_t, ptr %22, i64 %.037
  %25 = call i32 @strcmp(ptr noundef nonnull dereferenceable(1) %24, ptr noundef nonnull dereferenceable(5) @.str.2) #14
  %.not28 = icmp eq i32 %25, 0
  br i1 %.not28, label %26, label %46

26:                                               ; preds = %23
  %27 = getelementptr inbounds nuw i8, ptr %24, i64 8
  %28 = load ptr, ptr %27, align 8, !tbaa !54
  %29 = getelementptr inbounds nuw i8, ptr %28, i64 2
  %30 = load i8, ptr %29, align 1, !tbaa !42
  %.not29 = icmp eq i8 %30, 0
  br i1 %.not29, label %31, label %42

31:                                               ; preds = %26
  %32 = getelementptr inbounds nuw i8, ptr %28, i64 3
  %33 = load i8, ptr %32, align 1, !tbaa !42
  %.not30 = icmp eq i8 %33, 0
  br i1 %.not30, label %42, label %34

34:                                               ; preds = %31
  %35 = load i8, ptr %28, align 1, !tbaa !42
  %36 = zext i8 %35 to i32
  store i32 %36, ptr %2, align 4, !tbaa !47
  %37 = getelementptr inbounds nuw i8, ptr %28, i64 1
  %38 = load i8, ptr %37, align 1, !tbaa !42
  %39 = zext i8 %38 to i32
  store i32 %39, ptr %9, align 4, !tbaa !49
  %40 = load i8, ptr %29, align 1, !tbaa !42
  %41 = zext i8 %40 to i32
  store i32 %41, ptr %10, align 4, !tbaa !50
  br label %.loopexit

42:                                               ; preds = %26, %31
  %43 = load i32, ptr getelementptr inbounds nuw (i8, ptr @darktable, i64 8), align 8, !tbaa !56
  %44 = and i32 %43, 262144
  %.not31 = icmp eq i32 %44, 0
  br i1 %.not31, label %.loopexit, label %45

45:                                               ; preds = %42
  call void (ptr, ...) @dt_print_ext(ptr noundef nonnull @.str.6, ptr noundef nonnull %0) #11
  br label %.loopexit

46:                                               ; preds = %23
  %47 = add nuw i64 %.037, 1
  %exitcond.not = icmp eq i64 %47, %21
  br i1 %exitcond.not, label %.loopexit, label %23

.loopexit:                                        ; preds = %46, %15, %34, %45, %42
  %48 = load ptr, ptr %16, align 8, !tbaa !15
  %49 = load ptr, ptr %18, align 8, !tbaa !16
  %50 = call i32 @png_get_valid(ptr noundef %48, ptr noundef %49, i32 noundef 4096) #11
  %.not32 = icmp eq i32 %50, 0
  br i1 %.not32, label %63, label %51

51:                                               ; preds = %.loopexit
  %52 = load ptr, ptr %16, align 8, !tbaa !15
  %53 = load ptr, ptr %18, align 8, !tbaa !16
  %54 = call i32 @png_get_iCCP(ptr noundef %52, ptr noundef %53, ptr noundef nonnull %5, ptr noundef null, ptr noundef nonnull %7, ptr noundef nonnull %6) #11
  %.not33 = icmp eq i32 %54, 0
  br i1 %.not33, label %63, label %55

55:                                               ; preds = %51
  %56 = load i32, ptr %6, align 4, !tbaa !51
  %57 = zext i32 %56 to i64
  %58 = call noalias ptr @g_try_malloc(i64 noundef %57) #13
  store ptr %58, ptr %1, align 8, !tbaa !21
  %.not34 = icmp eq ptr %58, null
  br i1 %.not34, label %63, label %59

59:                                               ; preds = %55
  %60 = load ptr, ptr %7, align 8, !tbaa !21
  %61 = load i32, ptr %6, align 4, !tbaa !51
  %62 = zext i32 %61 to i64
  call void @llvm.memcpy.p0.p0.i64(ptr nonnull align 1 %58, ptr align 1 %60, i64 %62, i1 false)
  br label %63

63:                                               ; preds = %55, %59, %51, %.loopexit
  call void @png_destroy_read_struct(ptr noundef nonnull %16, ptr noundef nonnull %18, ptr noundef null) #11
  %64 = getelementptr inbounds nuw i8, ptr %4, i64 32
  %65 = load ptr, ptr %64, align 8, !tbaa !6
  %66 = call i32 @fclose(ptr noundef %65)
  %67 = load i32, ptr %6, align 4, !tbaa !51
  call void @llvm.lifetime.end.p0(i64 8, ptr nonnull %8) #11
  br label %68

68:                                               ; preds = %13, %3, %11, %63
  %.023 = phi i32 [ %67, %63 ], [ 0, %11 ], [ 0, %3 ], [ 0, %13 ]
  call void @llvm.lifetime.end.p0(i64 8, ptr nonnull %7) #11
  call void @llvm.lifetime.end.p0(i64 4, ptr nonnull %6) #11
  call void @llvm.lifetime.end.p0(i64 8, ptr nonnull %5) #11
  call void @llvm.lifetime.end.p0(i64 56, ptr nonnull %4) #11
  ret i32 %.023
}